; ModuleID = 'source-C-CXX/44/1037.c'
source_filename = "source-C-CXX/44/1037.c"
target datalayout = "e-m:e-p270:32:32-p271:32:32-p272:64:64-i64:64-f80:128-n8:16:32:64-S128"
target triple = "x86_64-pc-linux-gnu"

@.str = private unnamed_addr constant [5 x i8] c"%s%s\00", align 1
@.str.1 = private unnamed_addr constant [4 x i8] c"%d\0A\00", align 1

; Function Attrs: nofree nounwind sspstrong uwtable
define dso_local i32 @main() local_unnamed_addr #0 {
  %1 = alloca [50 x i8], align 16
  %2 = alloca [50 x i8], align 16
  %3 = getelementptr inbounds [50 x i8], [50 x i8]* %1, i64 0, i64 0
  call void @llvm.lifetime.start.p0i8(i64 50, i8* nonnull %3) #4
  %4 = getelementptr inbounds [50 x i8], [50 x i8]* %2, i64 0, i64 0
  call void @llvm.lifetime.start.p0i8(i64 50, i8* nonnull %4) #4
  %5 = call i32 (i8*, ...) @__isoc99_scanf(i8* getelementptr inbounds ([5 x i8], [5 x i8]* @.str, i64 0, i64 0), i8* nonnull %4, i8* nonnull %3)
  %6 = call i64 @strlen(i8* noundef nonnull %4) #5
  %7 = trunc i64 %6 to i32
  %8 = call i64 @strlen(i8* noundef nonnull %3) #5
  %9 = trunc i64 %8 to i32
  %10 = icmp slt i32 %9, %7
  br i1 %10, label %45, label %11

11:                                               ; preds = %0
  %12 = icmp sgt i32 %7, 0
  br i1 %12, label %13, label %40

13:                                               ; preds = %11
  %14 = add i32 %9, 1
  %15 = sub i32 %14, %7
  %16 = zext i32 %15 to i64
  %17 = and i64 %6, 4294967295
  br label %18

18:                                               ; preds = %13, %32
  %19 = phi i64 [ 0, %13 ], [ %34, %32 ]
  %20 = phi i32 [ 0, %13 ], [ %33, %32 ]
  br label %21

21:                                               ; preds = %18, %36
  %22 = phi i64 [ %19, %18 ], [ %38, %36 ]
  %23 = phi i64 [ 0, %18 ], [ %37, %36 ]
  %24 = getelementptr inbounds [50 x i8], [50 x i8]* %1, i64 0, i64 %22
  %25 = load i8, i8* %24, align 1, !tbaa !5
  %26 = getelementptr inbounds [50 x i8], [50 x i8]* %2, i64 0, i64 %23
  %27 = load i8, i8* %26, align 1, !tbaa !5
  %28 = icmp eq i8 %25, %27
  br i1 %28, label %36, label %29

29:                                               ; preds = %21
  %30 = trunc i64 %23 to i32
  %31 = icmp eq i32 %30, %7
  br i1 %31, label %45, label %32

32:                                               ; preds = %29
  %33 = add nuw nsw i32 %20, 1
  %34 = add nuw nsw i64 %19, 1
  %35 = icmp eq i64 %34, %16
  br i1 %35, label %45, label %18, !llvm.loop !8

36:                                               ; preds = %21
  %37 = add nuw nsw i64 %23, 1
  %38 = add nuw nsw i64 %22, 1
  %39 = icmp eq i64 %37, %17
  br i1 %39, label %45, label %21, !llvm.loop !10

40:                                               ; preds = %11
  %41 = icmp eq i32 %7, 0
  br i1 %41, label %45, label %42

42:                                               ; preds = %40
  %43 = add i32 %9, 1
  %44 = sub i32 %43, %7
  br label %45

45:                                               ; preds = %32, %29, %36, %42, %40, %0
  %46 = phi i32 [ 0, %0 ], [ 0, %40 ], [ %44, %42 ], [ %20, %36 ], [ %20, %29 ], [ %15, %32 ]
  %47 = call i32 (i8*, ...) @printf(i8* nonnull dereferenceable(1) getelementptr inbounds ([4 x i8], [4 x i8]* @.str.1, i64 0, i64 0), i32 %46)
  call void @llvm.lifetime.end.p0i8(i64 50, i8* nonnull %4) #4
  call void @llvm.lifetime.end.p0i8(i64 50, i8* nonnull %3) #4
  ret i32 0
}

; Function Attrs: argmemonly mustprogress nofree nosync nounwind willreturn
declare void @llvm.lifetime.start.p0i8(i64 immarg, i8* nocapture) #1

; Function Attrs: nofree nounwind
declare noundef i32 @__isoc99_scanf(i8* nocapture noundef readonly, ...) local_unnamed_addr #2

; Function Attrs: argmemonly mustprogress nofree nounwind readonly willreturn
declare i64 @strlen(i8* nocapture) local_unnamed_addr #3

; Function Attrs: nofree nounwind
declare noundef i32 @printf(i8* nocapture noundef readonly, ...) local_unnamed_addr #2

; Function Attrs: argmemonly mustprogress nofree nosync nounwind willreturn
declare void @llvm.lifetime.end.p0i8(i64 immarg, i8* nocapture) #1


!llvm.module.flags = !{!0, !1, !2, !3}
!llvm.ident = !{!4}

!0 = !{i32 1, !"wchar_size", i32 4}
!1 = !{i32 7, !"PIC Level", i32 2}
!2 = !{i32 7, !"PIE Level", i32 2}
!3 = !{i32 7, !"uwtable", i32 1}
!4 = !{!"clang version 13.0.0"}
!5 = !{!6, !6, i64 0}
!6 = !{!"omnipotent char", !7, i64 0}
!7 = !{!"Simple C/C++ TBAA"}
!8 = distinct !{!8, !9}
!9 = !{!"llvm.loop.mustprogress"}
!10 = distinct !{!10, !9}
